target datalayout = "e-m:e-p270:32:32-p271:32:32-p272:64:64-i64:64-i128:128-f80:128-n8:16:32:64-S128"
target triple = "x86_64-pc-linux-gnu"

@"_ZTIZZ24test_submodule_callbacksRN8pybind117module_EENK3$_1clEvEUlvE_" = internal constant { ptr, ptr } { ptr getelementptr inbounds (ptr, ptr @_ZTVN10__cxxabiv117__class_type_infoE, i64 2), ptr @"_ZTSZZ24test_submodule_callbacksRN8pybind117module_EENK3$_1clEvEUlvE_" }, align 8

; Function Attrs: inlinehint mustprogress uwtable
define internal void @"_ZZZ24test_submodule_callbacksRN8pybind117module_EENK3$_1clEvENUlvE_C2ERKS3_"(ptr noundef nonnull align 1 dereferenceable(1) %0, ptr noundef nonnull align 1 dereferenceable(1) %1) unnamed_addr #11 align 2 {
  %3 = alloca ptr, align 8
  %4 = alloca ptr, align 8
  store ptr %0, ptr %3, align 8, !tbaa !85
  store ptr %1, ptr %4, align 8, !tbaa !85
  %5 = load ptr, ptr %3, align 8
  %6 = load ptr, ptr %4, align 8, !tbaa !85
  call void @_ZZ24test_submodule_callbacksRN8pybind117module_EEN7PayloadC2ERKS2_(ptr noundef nonnull align 1 dereferenceable(1) %5, ptr noundef nonnull align 1 dereferenceable(1) %6)
  ret void
}

; Function Attrs: inlinehint mustprogress nounwind uwtable
define internal void @"_ZZZ24test_submodule_callbacksRN8pybind117module_EENK3$_1clEvENUlvE_D2Ev"(ptr noundef nonnull align 1 dereferenceable(1) %0) unnamed_addr #0 align 2 {
  %2 = alloca ptr, align 8
  store ptr %0, ptr %2, align 8, !tbaa !85
  %3 = load ptr, ptr %2, align 8
  call void @_ZZ24test_submodule_callbacksRN8pybind117module_EEN7PayloadD2Ev(ptr noundef nonnull align 1 dereferenceable(1) %3) #25
  ret void
}

; Function Attrs: mustprogress uwtable
define internal void @"_ZNSt14_Function_base13_Base_managerIZZ24test_submodule_callbacksRN8pybind117module_EENK3$_1clEvEUlvE_E9_M_createIRKS5_EEvRSt9_Any_dataOT_St17integral_constantIbLb0EE"(ptr noundef nonnull align 8 dereferenceable(16) %0, ptr noundef nonnull align 1 dereferenceable(1) %1) #4 align 2 personality ptr @__gxx_personality_v0 {
  %3 = alloca ptr, align 8
  %4 = alloca ptr, align 8
  %5 = alloca ptr, align 8
  %6 = alloca i32, align 4
  store ptr %0, ptr %3, align 8, !tbaa !1392
  store ptr %1, ptr %4, align 8, !tbaa !85
  %7 = call noalias noundef nonnull ptr @_Znwm(i64 noundef 1) #36
  %8 = load ptr, ptr %4, align 8, !tbaa !85
  invoke void @"_ZZZ24test_submodule_callbacksRN8pybind117module_EENK3$_1clEvENUlvE_C2ERKS3_"(ptr noundef nonnull align 1 dereferenceable(1) %7, ptr noundef nonnull align 1 dereferenceable(1) %8)
          to label %9 unwind label %12

9:                                                ; preds = %2
  %10 = load ptr, ptr %3, align 8, !tbaa !1392
  %11 = call noundef nonnull align 8 dereferenceable(8) ptr @"_ZNSt9_Any_data9_M_accessIPZZ24test_submodule_callbacksRN8pybind117module_EENK3$_1clEvEUlvE_EERT_v"(ptr noundef nonnull align 8 dereferenceable(16) %10) #25
  store ptr %7, ptr %11, align 8, !tbaa !85
  ret void

12:                                               ; preds = %2
  %13 = landingpad { ptr, i32 }
          cleanup
  %14 = extractvalue { ptr, i32 } %13, 0
  store ptr %14, ptr %5, align 8
  %15 = extractvalue { ptr, i32 } %13, 1
  store i32 %15, ptr %6, align 4
  call void @_ZdlPvm(ptr noundef %7, i64 noundef 1) #35
  br label %16

16:                                               ; preds = %12
  %17 = load ptr, ptr %5, align 8
  %18 = load i32, ptr %6, align 4
  %19 = insertvalue { ptr, i32 } poison, ptr %17, 0
  %20 = insertvalue { ptr, i32 } %19, i32 %18, 1
  resume { ptr, i32 } %20
}

; Function Attrs: mustprogress nounwind uwtable
define linkonce_odr noundef ptr @_ZNKSt9_Any_data9_M_accessEv(ptr noundef nonnull align 8 dereferenceable(16) %0) #5 comdat align 2 {
  %2 = alloca ptr, align 8
  store ptr %0, ptr %2, align 8, !tbaa !1392
  %3 = load ptr, ptr %2, align 8
  %4 = getelementptr inbounds [16 x i8], ptr %3, i64 0, i64 0
  ret ptr %4
}

; Function Attrs: mustprogress nounwind uwtable
define internal void @"_ZNSt14_Function_base13_Base_managerIZZ24test_submodule_callbacksRN8pybind117module_EENK3$_1clEvEUlvE_E10_M_destroyERSt9_Any_dataSt17integral_constantIbLb0EE"(ptr noundef nonnull align 8 dereferenceable(16) %0) #5 align 2 {
  %2 = alloca ptr, align 8
  store ptr %0, ptr %2, align 8, !tbaa !1392
  %3 = load ptr, ptr %2, align 8, !tbaa !1392
  %4 = call noundef nonnull align 8 dereferenceable(8) ptr @"_ZNSt9_Any_data9_M_accessIPZZ24test_submodule_callbacksRN8pybind117module_EENK3$_1clEvEUlvE_EERT_v"(ptr noundef nonnull align 8 dereferenceable(16) %3) #25
  %5 = load ptr, ptr %4, align 8, !tbaa !85
  %6 = icmp eq ptr %5, null
  br i1 %6, label %8, label %7

7:                                                ; preds = %1
  call void @"_ZZZ24test_submodule_callbacksRN8pybind117module_EENK3$_1clEvENUlvE_D2Ev"(ptr noundef nonnull align 1 dereferenceable(1) %5) #25
  call void @_ZdlPvm(ptr noundef %5, i64 noundef 1) #35
  br label %8

8:                                                ; preds = %7, %1
  ret void
}

; Function Attrs: mustprogress uwtable
define internal void @"_ZNSt14_Function_base13_Base_managerIZZ24test_submodule_callbacksRN8pybind117module_EENK3$_1clEvEUlvE_E15_M_init_functorIRKS5_EEvRSt9_Any_dataOT_"(ptr noundef nonnull align 8 dereferenceable(16) %0, ptr noundef nonnull align 1 dereferenceable(1) %1) #4 align 2 {
  %3 = alloca ptr, align 8
  %4 = alloca ptr, align 8
  store ptr %0, ptr %3, align 8, !tbaa !1392
  store ptr %1, ptr %4, align 8, !tbaa !85
  %5 = load ptr, ptr %3, align 8, !tbaa !1392
  %6 = load ptr, ptr %4, align 8, !tbaa !85
  call void @"_ZNSt14_Function_base13_Base_managerIZZ24test_submodule_callbacksRN8pybind117module_EENK3$_1clEvEUlvE_E9_M_createIRKS5_EEvRSt9_Any_dataOT_St17integral_constantIbLb0EE"(ptr noundef nonnull align 8 dereferenceable(16) %5, ptr noundef nonnull align 1 dereferenceable(1) %6)
  ret void
}

; Function Attrs: mustprogress nounwind uwtable
define internal noundef nonnull align 8 dereferenceable(8) ptr @"_ZNKSt9_Any_data9_M_accessIPZZ24test_submodule_callbacksRN8pybind117module_EENK3$_1clEvEUlvE_EERKT_v"(ptr noundef nonnull align 8 dereferenceable(16) %0) #5 align 2 {
  %2 = alloca ptr, align 8
  store ptr %0, ptr %2, align 8, !tbaa !1392
  %3 = load ptr, ptr %2, align 8
  %4 = call noundef ptr @_ZNKSt9_Any_data9_M_accessEv(ptr noundef nonnull align 8 dereferenceable(16) %3) #25
  ret ptr %4
}

; Function Attrs: mustprogress nounwind uwtable
define linkonce_odr noundef ptr @_ZNSt9_Any_data9_M_accessEv(ptr noundef nonnull align 8 dereferenceable(16) %0) #5 comdat align 2 {
  %2 = alloca ptr, align 8
  store ptr %0, ptr %2, align 8, !tbaa !1392
  %3 = load ptr, ptr %2, align 8
  %4 = getelementptr inbounds [16 x i8], ptr %3, i64 0, i64 0
  ret ptr %4
}

; Function Attrs: mustprogress uwtable
define internal noundef zeroext i1 @"_ZNSt14_Function_base13_Base_managerIZZ24test_submodule_callbacksRN8pybind117module_EENK3$_1clEvEUlvE_E10_M_managerERSt9_Any_dataRKS7_St18_Manager_operation"(ptr noundef nonnull align 8 dereferenceable(16) %0, ptr noundef nonnull align 8 dereferenceable(16) %1, i32 noundef %2) #4 align 2 {
  %4 = alloca ptr, align 8
  %5 = alloca ptr, align 8
  %6 = alloca i32, align 4
  store ptr %0, ptr %4, align 8, !tbaa !1392
  store ptr %1, ptr %5, align 8, !tbaa !1392
  store i32 %2, ptr %6, align 4, !tbaa !1394
  %7 = load i32, ptr %6, align 4, !tbaa !1394
  switch i32 %7, label %22 [
    i32 0, label %8
    i32 1, label %11
    i32 2, label %16
    i32 3, label %20
  ]

8:                                                ; preds = %3
  %9 = load ptr, ptr %4, align 8, !tbaa !1392
  %10 = call noundef nonnull align 8 dereferenceable(8) ptr @_ZNSt9_Any_data9_M_accessIPKSt9type_infoEERT_v(ptr noundef nonnull align 8 dereferenceable(16) %9) #25
  store ptr @"_ZTIZZ24test_submodule_callbacksRN8pybind117module_EENK3$_1clEvEUlvE_", ptr %10, align 8, !tbaa !298
  br label %22

11:                                               ; preds = %3
  %12 = load ptr, ptr %5, align 8, !tbaa !1392
  %13 = call noundef ptr @"_ZNSt14_Function_base13_Base_managerIZZ24test_submodule_callbacksRN8pybind117module_EENK3$_1clEvEUlvE_E14_M_get_pointerERKSt9_Any_data"(ptr noundef nonnull align 8 dereferenceable(16) %12) #25
  %14 = load ptr, ptr %4, align 8, !tbaa !1392
  %15 = call noundef nonnull align 8 dereferenceable(8) ptr @"_ZNSt9_Any_data9_M_accessIPZZ24test_submodule_callbacksRN8pybind117module_EENK3$_1clEvEUlvE_EERT_v"(ptr noundef nonnull align 8 dereferenceable(16) %14) #25
  store ptr %13, ptr %15, align 8, !tbaa !85
  br label %22

16:                                               ; preds = %3
  %17 = load ptr, ptr %4, align 8, !tbaa !1392
  %18 = load ptr, ptr %5, align 8, !tbaa !1392
  %19 = call noundef ptr @"_ZNSt14_Function_base13_Base_managerIZZ24test_submodule_callbacksRN8pybind117module_EENK3$_1clEvEUlvE_E14_M_get_pointerERKSt9_Any_data"(ptr noundef nonnull align 8 dereferenceable(16) %18) #25
  call void @"_ZNSt14_Function_base13_Base_managerIZZ24test_submodule_callbacksRN8pybind117module_EENK3$_1clEvEUlvE_E15_M_init_functorIRKS5_EEvRSt9_Any_dataOT_"(ptr noundef nonnull align 8 dereferenceable(16) %17, ptr noundef nonnull align 1 dereferenceable(1) %19)
  br label %22

20:                                               ; preds = %3
  %21 = load ptr, ptr %4, align 8, !tbaa !1392
  call void @"_ZNSt14_Function_base13_Base_managerIZZ24test_submodule_callbacksRN8pybind117module_EENK3$_1clEvEUlvE_E10_M_destroyERSt9_Any_dataSt17integral_constantIbLb0EE"(ptr noundef nonnull align 8 dereferenceable(16) %21)
  br label %22

22:                                               ; preds = %3, %20, %16, %11, %8
  ret i1 false
}

; Function Attrs: mustprogress nounwind uwtable
define internal noundef nonnull align 8 dereferenceable(8) ptr @"_ZNSt9_Any_data9_M_accessIPZZ24test_submodule_callbacksRN8pybind117module_EENK3$_1clEvEUlvE_EERT_v"(ptr noundef nonnull align 8 dereferenceable(16) %0) #5 align 2 {
  %2 = alloca ptr, align 8
  store ptr %0, ptr %2, align 8, !tbaa !1392
  %3 = load ptr, ptr %2, align 8
  %4 = call noundef ptr @_ZNSt9_Any_data9_M_accessEv(ptr noundef nonnull align 8 dereferenceable(16) %3) #25
  ret ptr %4
}

; Function Attrs: mustprogress nounwind uwtable
define internal noundef ptr @"_ZNSt14_Function_base13_Base_managerIZZ24test_submodule_callbacksRN8pybind117module_EENK3$_1clEvEUlvE_E14_M_get_pointerERKSt9_Any_data"(ptr noundef nonnull align 8 dereferenceable(16) %0) #5 align 2 {
  %2 = alloca ptr, align 8
  store ptr %0, ptr %2, align 8, !tbaa !1392
  %3 = load ptr, ptr %2, align 8, !tbaa !1392
  %4 = call noundef nonnull align 8 dereferenceable(8) ptr @"_ZNKSt9_Any_data9_M_accessIPZZ24test_submodule_callbacksRN8pybind117module_EENK3$_1clEvEUlvE_EERKT_v"(ptr noundef nonnull align 8 dereferenceable(16) %3) #25
  %5 = load ptr, ptr %4, align 8, !tbaa !85
  ret ptr %5
}

; Function Attrs: mustprogress nounwind uwtable
define linkonce_odr noundef nonnull align 8 dereferenceable(8) ptr @_ZNSt9_Any_data9_M_accessIPKSt9type_infoEERT_v(ptr noundef nonnull align 8 dereferenceable(16) %0) #5 comdat align 2 {
  %2 = alloca ptr, align 8
  store ptr %0, ptr %2, align 8, !tbaa !1392
  %3 = load ptr, ptr %2, align 8
  %4 = call noundef ptr @_ZNSt9_Any_data9_M_accessEv(ptr noundef nonnull align 8 dereferenceable(16) %3) #25
  ret ptr %4
}

; Function Attrs: mustprogress uwtable
define internal noundef zeroext i1 @"_ZNSt17_Function_handlerIFvvEZZ24test_submodule_callbacksRN8pybind117module_EENK3$_1clEvEUlvE_E10_M_managerERSt9_Any_dataRKS7_St18_Manager_operation"(ptr noundef nonnull align 8 dereferenceable(16) %0, ptr noundef nonnull align 8 dereferenceable(16) %1, i32 noundef %2) #4 align 2 {
  %4 = alloca ptr, align 8
  %5 = alloca ptr, align 8
  %6 = alloca i32, align 4
  store ptr %0, ptr %4, align 8, !tbaa !1392
  store ptr %1, ptr %5, align 8, !tbaa !1392
  store i32 %2, ptr %6, align 4, !tbaa !1394
  %7 = load i32, ptr %6, align 4, !tbaa !1394
  switch i32 %7, label %16 [
    i32 0, label %8
    i32 1, label %11
  ]

8:                                                ; preds = %3
  %9 = load ptr, ptr %4, align 8, !tbaa !1392
  %10 = call noundef nonnull align 8 dereferenceable(8) ptr @_ZNSt9_Any_data9_M_accessIPKSt9type_infoEERT_v(ptr noundef nonnull align 8 dereferenceable(16) %9) #25
  store ptr @"_ZTIZZ24test_submodule_callbacksRN8pybind117module_EENK3$_1clEvEUlvE_", ptr %10, align 8, !tbaa !298
  br label %21

11:                                               ; preds = %3
  %12 = load ptr, ptr %5, align 8, !tbaa !1392
  %13 = call noundef ptr @"_ZNSt14_Function_base13_Base_managerIZZ24test_submodule_callbacksRN8pybind117module_EENK3$_1clEvEUlvE_E14_M_get_pointerERKSt9_Any_data"(ptr noundef nonnull align 8 dereferenceable(16) %12) #25
  %14 = load ptr, ptr %4, align 8, !tbaa !1392
  %15 = call noundef nonnull align 8 dereferenceable(8) ptr @"_ZNSt9_Any_data9_M_accessIPZZ24test_submodule_callbacksRN8pybind117module_EENK3$_1clEvEUlvE_EERT_v"(ptr noundef nonnull align 8 dereferenceable(16) %14) #25
  store ptr %13, ptr %15, align 8, !tbaa !85
  br label %21

16:                                               ; preds = %3
  %17 = load ptr, ptr %4, align 8, !tbaa !1392
  %18 = load ptr, ptr %5, align 8, !tbaa !1392
  %19 = load i32, ptr %6, align 4, !tbaa !1394
  %20 = call noundef zeroext i1 @"_ZNSt14_Function_base13_Base_managerIZZ24test_submodule_callbacksRN8pybind117module_EENK3$_1clEvEUlvE_E10_M_managerERSt9_Any_dataRKS7_St18_Manager_operation"(ptr noundef nonnull align 8 dereferenceable(16) %17, ptr noundef nonnull align 8 dereferenceable(16) %18, i32 noundef %19)
  br label %21

21:                                               ; preds = %16, %11, %8
  ret i1 false
}