; Function Attrs: mustprogress uwtable
define internal noundef zeroext i1 @"_ZNSt17_Function_handlerIFvvEZZ24test_submodule_callbacksRN8pybind117module_EENK3$_1clEvEUlvE_E10_M_managerERSt9_Any_dataRKS7_St18_Manager_operation"(ptr noundef nonnull align 8 captures(none) dereferenceable(16) %0, ptr noundef nonnull readonly align 8 captures(none) dereferenceable(16) %1, i32 noundef %2) #5 align 2 personality ptr @__gxx_personality_v0 {
  switch i32 %2, label %"_ZNSt14_Function_base13_Base_managerIZZ24test_submodule_callbacksRN8pybind117module_EENK3$_1clEvEUlvE_E10_M_managerERSt9_Any_dataRKS7_St18_Manager_operation.exit" [
    i32 0, label %4
    i32 1, label %5
    i32 3, label %10
    i32 2, label %6
  ]

4:                                                ; preds = %3
  store ptr @"_ZTIZZ24test_submodule_callbacksRN8pybind117module_EENK3$_1clEvEUlvE_", ptr %0, align 8, !tbaa !725
  br label %"_ZNSt14_Function_base13_Base_managerIZZ24test_submodule_callbacksRN8pybind117module_EENK3$_1clEvEUlvE_E10_M_managerERSt9_Any_dataRKS7_St18_Manager_operation.exit"

5:                                                ; preds = %3
  %.val = load ptr, ptr %1, align 8, !tbaa !237
  store ptr %.val, ptr %0, align 8, !tbaa !237
  br label %"_ZNSt14_Function_base13_Base_managerIZZ24test_submodule_callbacksRN8pybind117module_EENK3$_1clEvEUlvE_E10_M_managerERSt9_Any_dataRKS7_St18_Manager_operation.exit"

6:                                                ; preds = %3
  %7 = tail call noalias noundef nonnull dereferenceable(1) ptr @_Znwm(i64 noundef 1) #43
  invoke fastcc void @_ZZ24test_submodule_callbacksRN8pybind117module_EEN7PayloadC2ERKS2_(ptr noundef nonnull align 1 dereferenceable(1) %7)
          to label %"_ZNSt14_Function_base13_Base_managerIZZ24test_submodule_callbacksRN8pybind117module_EENK3$_1clEvEUlvE_E15_M_init_functorIRKS5_EEvRSt9_Any_dataOT_.exit.i" unwind label %8

8:                                                ; preds = %6
  %9 = landingpad { ptr, i32 }
          cleanup
  tail call void @_ZdlPvm(ptr noundef nonnull %7, i64 noundef 1) #41
  resume { ptr, i32 } %9

"_ZNSt14_Function_base13_Base_managerIZZ24test_submodule_callbacksRN8pybind117module_EENK3$_1clEvEUlvE_E15_M_init_functorIRKS5_EEvRSt9_Any_dataOT_.exit.i": ; preds = %6
  store ptr %7, ptr %0, align 8, !tbaa !237
  br label %"_ZNSt14_Function_base13_Base_managerIZZ24test_submodule_callbacksRN8pybind117module_EENK3$_1clEvEUlvE_E10_M_managerERSt9_Any_dataRKS7_St18_Manager_operation.exit"

10:                                               ; preds = %3
  %.val.i = load ptr, ptr %0, align 8, !tbaa !237
  %11 = icmp eq ptr %.val.i, null
  br i1 %11, label %"_ZNSt14_Function_base13_Base_managerIZZ24test_submodule_callbacksRN8pybind117module_EENK3$_1clEvEUlvE_E10_M_managerERSt9_Any_dataRKS7_St18_Manager_operation.exit", label %12

12:                                               ; preds = %10
  tail call fastcc void @_ZZ24test_submodule_callbacksRN8pybind117module_EEN7PayloadD2Ev(ptr noundef nonnull align 1 dereferenceable(1) %.val.i) #38
  tail call void @_ZdlPvm(ptr noundef nonnull %.val.i, i64 noundef 1) #41
  br label %"_ZNSt14_Function_base13_Base_managerIZZ24test_submodule_callbacksRN8pybind117module_EENK3$_1clEvEUlvE_E10_M_managerERSt9_Any_dataRKS7_St18_Manager_operation.exit"

"_ZNSt14_Function_base13_Base_managerIZZ24test_submodule_callbacksRN8pybind117module_EENK3$_1clEvEUlvE_E10_M_managerERSt9_Any_dataRKS7_St18_Manager_operation.exit": ; preds = %3, %12, %10, %"_ZNSt14_Function_base13_Base_managerIZZ24test_submodule_callbacksRN8pybind117module_EENK3$_1clEvEUlvE_E15_M_init_functorIRKS5_EEvRSt9_Any_dataOT_.exit.i", %5, %4
  ret i1 false
}